target datalayout = "e-m:e-p270:32:32-p271:32:32-p272:64:64-i64:64-i128:128-f80:128-n8:16:32:64-S128"
target triple = "x86_64-pc-linux-gnu"

; Function Attrs: mustprogress nounwind uwtable
define noundef i32 @_Z18gmx_strcasecmp_minPKcS0_(ptr noundef %0, ptr noundef %1) #1 {
  %3 = alloca i32, align 4
  %4 = alloca ptr, align 8
  %5 = alloca ptr, align 8
  %6 = alloca i8, align 1
  %7 = alloca i8, align 1
  %8 = alloca i32, align 4
  store ptr %0, ptr %4, align 8, !tbaa !4
  store ptr %1, ptr %5, align 8, !tbaa !4
  call void @llvm.lifetime.start.p0(i64 1, ptr %6) #13
  store i8 0, ptr %6, align 1, !tbaa !11
  call void @llvm.lifetime.start.p0(i64 1, ptr %7) #13
  store i8 0, ptr %7, align 1, !tbaa !11
  br label %9

9:                                                ; preds = %58, %2
  br label %10

10:                                               ; preds = %25, %9
  %11 = load ptr, ptr %4, align 8, !tbaa !4
  %12 = getelementptr inbounds nuw i8, ptr %11, i32 1
  store ptr %12, ptr %4, align 8, !tbaa !4
  %13 = load i8, ptr %11, align 1, !tbaa !11
  %14 = sext i8 %13 to i32
  %15 = call i32 @toupper(i32 noundef %14) #14
  %16 = trunc i32 %15 to i8
  store i8 %16, ptr %6, align 1, !tbaa !11
  br label %17

17:                                               ; preds = %10
  %18 = load i8, ptr %6, align 1, !tbaa !11
  %19 = sext i8 %18 to i32
  %20 = icmp eq i32 %19, 45
  br i1 %20, label %25, label %21

21:                                               ; preds = %17
  %22 = load i8, ptr %6, align 1, !tbaa !11
  %23 = sext i8 %22 to i32
  %24 = icmp eq i32 %23, 95
  br label %25

25:                                               ; preds = %21, %17
  %26 = phi i1 [ true, %17 ], [ %24, %21 ]
  br i1 %26, label %10, label %27, !llvm.loop !73

27:                                               ; preds = %25
  br label %28

28:                                               ; preds = %43, %27
  %29 = load ptr, ptr %5, align 8, !tbaa !4
  %30 = getelementptr inbounds nuw i8, ptr %29, i32 1
  store ptr %30, ptr %5, align 8, !tbaa !4
  %31 = load i8, ptr %29, align 1, !tbaa !11
  %32 = sext i8 %31 to i32
  %33 = call i32 @toupper(i32 noundef %32) #14
  %34 = trunc i32 %33 to i8
  store i8 %34, ptr %7, align 1, !tbaa !11
  br label %35

35:                                               ; preds = %28
  %36 = load i8, ptr %7, align 1, !tbaa !11
  %37 = sext i8 %36 to i32
  %38 = icmp eq i32 %37, 45
  br i1 %38, label %43, label %39

39:                                               ; preds = %35
  %40 = load i8, ptr %7, align 1, !tbaa !11
  %41 = sext i8 %40 to i32
  %42 = icmp eq i32 %41, 95
  br label %43

43:                                               ; preds = %39, %35
  %44 = phi i1 [ true, %35 ], [ %42, %39 ]
  br i1 %44, label %28, label %45, !llvm.loop !74

45:                                               ; preds = %43
  %46 = load i8, ptr %6, align 1, !tbaa !11
  %47 = sext i8 %46 to i32
  %48 = load i8, ptr %7, align 1, !tbaa !11
  %49 = sext i8 %48 to i32
  %50 = icmp ne i32 %47, %49
  br i1 %50, label %51, label %57

51:                                               ; preds = %45
  %52 = load i8, ptr %6, align 1, !tbaa !11
  %53 = sext i8 %52 to i32
  %54 = load i8, ptr %7, align 1, !tbaa !11
  %55 = sext i8 %54 to i32
  %56 = sub nsw i32 %53, %55
  store i32 %56, ptr %3, align 4
  store i32 1, ptr %8, align 4
  br label %63

57:                                               ; preds = %45
  br label %58

58:                                               ; preds = %57
  %59 = load i8, ptr %6, align 1, !tbaa !11
  %60 = sext i8 %59 to i32
  %61 = icmp ne i32 %60, 0
  br i1 %61, label %9, label %62, !llvm.loop !75

62:                                               ; preds = %58
  store i32 0, ptr %3, align 4
  store i32 1, ptr %8, align 4
  br label %63

63:                                               ; preds = %62, %51
  call void @llvm.lifetime.end.p0(i64 1, ptr %7) #13
  call void @llvm.lifetime.end.p0(i64 1, ptr %6) #13
  %64 = load i32, ptr %3, align 4
  ret i32 %64
}