; Function Attrs: mustprogress nofree nounwind willreturn memory(read) uwtable
define noundef range(i32 -255, 256) i32 @_Z18gmx_strcasecmp_minPKcS0_(ptr noundef readonly captures(none) %0, ptr noundef readonly captures(none) %1) local_unnamed_addr #14 {
  br label %3

3:                                                ; preds = %17, %2
  %.011 = phi ptr [ %0, %2 ], [ %4, %17 ]
  %.0 = phi ptr [ %1, %2 ], [ %8, %17 ]
  br label %.backedge19

.backedge19:                                      ; preds = %.backedge19.backedge, %3
  %.112 = phi ptr [ %.011, %3 ], [ %4, %.backedge19.backedge ]
  %4 = getelementptr inbounds nuw i8, ptr %.112, i64 1
  %5 = load i8, ptr %.112, align 1, !tbaa !4
  %6 = sext i8 %5 to i32
  %7 = tail call i32 @toupper(i32 noundef %6) #24
  %sext = shl i32 %7, 24
  switch i32 %sext, label %.preheader [
    i32 1593835520, label %.backedge19.backedge
    i32 754974720, label %.backedge19.backedge
  ]

.backedge19.backedge:                             ; preds = %.backedge19, %.backedge19
  br label %.backedge19

.preheader:                                       ; preds = %.backedge19, %.preheader.backedge
  %.1 = phi ptr [ %8, %.preheader.backedge ], [ %.0, %.backedge19 ]
  %8 = getelementptr inbounds nuw i8, ptr %.1, i64 1
  %9 = load i8, ptr %.1, align 1, !tbaa !4
  %10 = sext i8 %9 to i32
  %11 = tail call i32 @toupper(i32 noundef %10) #24
  %sext17 = shl i32 %11, 24
  switch i32 %sext17, label %12 [
    i32 1593835520, label %.preheader.backedge
    i32 754974720, label %.preheader.backedge
  ]

.preheader.backedge:                              ; preds = %.preheader, %.preheader
  br label %.preheader

12:                                               ; preds = %.preheader
  %13 = ashr exact i32 %sext, 24
  %14 = ashr exact i32 %sext17, 24
  %.not = icmp eq i32 %13, %14
  br i1 %.not, label %17, label %15

15:                                               ; preds = %12
  %16 = sub nsw i32 %13, %14
  br label %.loopexit

17:                                               ; preds = %12
  %.not18 = icmp eq i32 %sext, 0
  br i1 %.not18, label %.loopexit, label %3, !llvm.loop !23

.loopexit:                                        ; preds = %17, %15
  %.013 = phi i32 [ %16, %15 ], [ 0, %17 ]
  ret i32 %.013
}